target datalayout = "e-m:e-p270:32:32-p271:32:32-p272:64:64-i64:64-i128:128-f80:128-n8:16:32:64-S128"
target triple = "x86_64-unknown-linux-gnu"

%"class.proxygen::RequestHandlerAdaptor" = type <{ %"class.proxygen::HTTPTransactionHandler", %"class.proxygen::ResponseHandler", i32, [4 x i8] }>
%"class.proxygen::HTTPTransactionHandler" = type { %"struct.proxygen::TraceEventObserver" }
%"struct.proxygen::TraceEventObserver" = type { ptr }
%"class.proxygen::ResponseHandler" = type { ptr, ptr, ptr }

; Function Attrs: mustprogress nounwind uwtable
define void @_ZN8proxygen21RequestHandlerAdaptor8setErrorENS_13ProxygenErrorE(ptr noundef nonnull align 8 dereferenceable(36) %this, i32 noundef %err) #5 align 2 {
entry:
  %this.addr = alloca ptr, align 8
  %err.addr = alloca i32, align 4
  %upstream = alloca ptr, align 8
  store ptr %this, ptr %this.addr, align 8
  store i32 %err, ptr %err.addr, align 4
  %this1 = load ptr, ptr %this.addr, align 8
  %0 = load i32, ptr %err.addr, align 4
  %err_ = getelementptr inbounds %"class.proxygen::RequestHandlerAdaptor", ptr %this1, i32 0, i32 2
  store i32 %0, ptr %err_, align 8
  %add.ptr = getelementptr inbounds i8, ptr %this1, i64 8
  %upstream_ = getelementptr inbounds %"class.proxygen::ResponseHandler", ptr %add.ptr, i32 0, i32 1
  %1 = load ptr, ptr %upstream_, align 8
  store ptr %1, ptr %upstream, align 8
  %add.ptr2 = getelementptr inbounds i8, ptr %this1, i64 8
  %upstream_3 = getelementptr inbounds %"class.proxygen::ResponseHandler", ptr %add.ptr2, i32 0, i32 1
  store ptr null, ptr %upstream_3, align 8
  %2 = load ptr, ptr %upstream, align 8
  %3 = load i32, ptr %err.addr, align 4
  %vtable = load ptr, ptr %2, align 8
  %vfn = getelementptr inbounds ptr, ptr %vtable, i64 6
  %4 = load ptr, ptr %vfn, align 8
  call void %4(ptr noundef nonnull align 8 dereferenceable(16) %2, i32 noundef %3) #3
  ret void
}