; Function Attrs: mustprogress nounwind uwtable
define void @_ZN8proxygen21RequestHandlerAdaptor8setErrorENS_13ProxygenErrorE(ptr nocapture noundef nonnull align 8 dereferenceable(36) %this, i32 noundef %err) local_unnamed_addr #4 align 2 {
entry:
  %err_ = getelementptr inbounds i8, ptr %this, i64 32
  store i32 %err, ptr %err_, align 8
  %upstream_ = getelementptr inbounds i8, ptr %this, i64 16
  %0 = load ptr, ptr %upstream_, align 8
  store ptr null, ptr %upstream_, align 8
  %vtable = load ptr, ptr %0, align 8
  %vfn = getelementptr inbounds i8, ptr %vtable, i64 48
  %1 = load ptr, ptr %vfn, align 8
  tail call void %1(ptr noundef nonnull align 8 dereferenceable(16) %0, i32 noundef %err) #19
  ret void
}